; Function Attrs: mustprogress uwtable
define internal void @_ZL25pj_deformation_forward_3d6PJ_LPZP8PJconsts(ptr dead_on_unwind noalias writable writeonly sret(%struct.PJ_XYZ) align 8 captures(none) initializes((0, 24)) %0, ptr noundef readonly byval(%struct.PJ_LPZ) align 8 captures(none) %1, ptr noundef %2) #0 {
  %4 = alloca %union.PJ_COORD, align 8
  %5 = alloca %union.PJ_COORD, align 8
  %6 = alloca %struct.PJ_XYZ, align 8
  %7 = getelementptr inbounds nuw i8, ptr %2, i64 88
  %8 = load ptr, ptr %7, align 8, !tbaa !40
  call void @llvm.lifetime.start.p0(i64 32, ptr nonnull %4) #13
  call void @llvm.memcpy.p0.p0.i64(ptr noundef nonnull align 8 dereferenceable(24) %4, ptr noundef nonnull align 8 dereferenceable(24) %1, i64 24, i1 false), !tbaa.struct !91
  %.sroa.07.0.copyload = load double, ptr %4, align 8
  %.sroa.8.0..sroa_idx = getelementptr inbounds nuw i8, ptr %4, i64 8
  %.sroa.8.0.copyload = load double, ptr %.sroa.8.0..sroa_idx, align 8
  %.sroa.10.0..sroa_idx = getelementptr inbounds nuw i8, ptr %4, i64 16
  %.sroa.10.0.copyload = load double, ptr %.sroa.10.0..sroa_idx, align 8
  %9 = load double, ptr %8, align 8, !tbaa !76
  %10 = fcmp oeq double %9, 0x7FF0000000000000
  br i1 %10, label %11, label %12

11:                                               ; preds = %3
  call void @llvm.lifetime.start.p0(i64 32, ptr nonnull %5) #13
  call void @_Z16proj_coord_errorv(ptr dead_on_unwind nonnull writable sret(%union.PJ_COORD) align 8 %5)
  %.sroa.07.0.copyload8 = load double, ptr %5, align 8
  %.sroa.8.0..sroa_idx11 = getelementptr inbounds nuw i8, ptr %5, i64 8
  %.sroa.8.0.copyload12 = load double, ptr %.sroa.8.0..sroa_idx11, align 8
  %.sroa.10.0..sroa_idx17 = getelementptr inbounds nuw i8, ptr %5, i64 16
  %.sroa.10.0.copyload18 = load double, ptr %.sroa.10.0..sroa_idx17, align 8
  call void @llvm.lifetime.end.p0(i64 32, ptr nonnull %5) #13
  call void (ptr, ptr, ...) @_Z14proj_log_debugP8PJconstsPKcz(ptr noundef nonnull %2, ptr noundef nonnull @.str.27)
  br label %19

12:                                               ; preds = %3
  call void @llvm.lifetime.start.p0(i64 24, ptr nonnull %6) #13
  call fastcc void @_ZL29pj_deformation_get_grid_shiftP8PJconstsRK6PJ_XYZ(ptr dead_on_unwind noalias writable align 8 %6, ptr noundef nonnull %2, ptr noundef nonnull align 8 dereferenceable(24) %4)
  %.sroa.0.0.copyload = load double, ptr %6, align 8, !tbaa !90
  %.sroa.6.0..sroa_idx = getelementptr inbounds nuw i8, ptr %6, i64 8
  %.sroa.6.0.copyload = load double, ptr %.sroa.6.0..sroa_idx, align 8, !tbaa !90
  %.sroa.7.0..sroa_idx = getelementptr inbounds nuw i8, ptr %6, i64 16
  %.sroa.7.0.copyload = load double, ptr %.sroa.7.0..sroa_idx, align 8, !tbaa !90
  call void @llvm.lifetime.end.p0(i64 24, ptr nonnull %6) #13
  %13 = fcmp oeq double %.sroa.0.0.copyload, 0x7FF0000000000000
  br i1 %13, label %19, label %14

14:                                               ; preds = %12
  %15 = load double, ptr %8, align 8, !tbaa !76
  %16 = tail call double @llvm.fmuladd.f64(double %15, double %.sroa.0.0.copyload, double %.sroa.07.0.copyload)
  %17 = tail call double @llvm.fmuladd.f64(double %15, double %.sroa.6.0.copyload, double %.sroa.8.0.copyload)
  %18 = tail call double @llvm.fmuladd.f64(double %15, double %.sroa.7.0.copyload, double %.sroa.10.0.copyload)
  br label %19

19:                                               ; preds = %12, %14, %11
  %.sink32 = phi double [ %16, %14 ], [ %.sroa.07.0.copyload8, %11 ], [ 0x7FF0000000000000, %12 ]
  %.sink31 = phi double [ %17, %14 ], [ %.sroa.8.0.copyload12, %11 ], [ %.sroa.6.0.copyload, %12 ]
  %.sink = phi double [ %18, %14 ], [ %.sroa.10.0.copyload18, %11 ], [ %.sroa.7.0.copyload, %12 ]
  store double %.sink32, ptr %0, align 8, !tbaa !90
  %.sroa.8.0..sroa_idx15 = getelementptr inbounds nuw i8, ptr %0, i64 8
  store double %.sink31, ptr %.sroa.8.0..sroa_idx15, align 8, !tbaa !90
  %.sroa.10.0..sroa_idx21 = getelementptr inbounds nuw i8, ptr %0, i64 16
  store double %.sink, ptr %.sroa.10.0..sroa_idx21, align 8, !tbaa !90
  call void @llvm.lifetime.end.p0(i64 32, ptr nonnull %4) #13
  ret void
}